; Function Attrs: mustprogress nounwind uwtable
define dso_local void @_ZN4llvm18DiagnosticLocationC2EPKNS_12DISubprogramE(ptr noundef nonnull writeonly align 8 captures(none) dereferenceable(16) initializes((0, 16)) %0, ptr noundef %1) unnamed_addr #1 align 2 {
  %3 = getelementptr inbounds nuw i8, ptr %0, i64 8
  %4 = getelementptr inbounds nuw i8, ptr %0, i64 12
  %.not = icmp eq ptr %1, null
  tail call void @llvm.memset.p0.i64(ptr noundef nonnull align 8 dereferenceable(16) %0, i8 0, i64 16, i1 false)
  br i1 %.not, label %25, label %5

5:                                                ; preds = %2
  %6 = load i8, ptr %1, align 4
  %7 = icmp eq i8 %6, 16
  br i1 %7, label %_ZNK4llvm7DIScope7getFileEv.exit, label %8

8:                                                ; preds = %5
  %9 = getelementptr inbounds i8, ptr %1, i64 -16
  %10 = load i64, ptr %9, align 8
  %11 = and i64 %10, 2
  %.not.i.i.i.i = icmp eq i64 %11, 0
  br i1 %.not.i.i.i.i, label %16, label %12

12:                                               ; preds = %8
  %13 = getelementptr inbounds i8, ptr %1, i64 -32
  %14 = load ptr, ptr %13, align 8
  %15 = tail call noundef i64 @_ZNK4llvm15SmallVectorBaseIjE4sizeEv(ptr noundef nonnull align 8 dereferenceable(16) %13) #16
  br label %_ZNK4llvm6MDNode10getOperandEj.exit.i.i

16:                                               ; preds = %8
  %17 = lshr i64 %10, 2
  %18 = and i64 %17, 15
  %19 = sub nsw i64 0, %18
  %20 = getelementptr inbounds %"class.llvm::MDOperand", ptr %9, i64 %19
  br label %_ZNK4llvm6MDNode10getOperandEj.exit.i.i

_ZNK4llvm6MDNode10getOperandEj.exit.i.i:          ; preds = %16, %12
  %.sroa.0.0.i.i.i.i = phi ptr [ %20, %16 ], [ %14, %12 ]
  %21 = load ptr, ptr %.sroa.0.0.i.i.i.i, align 8
  br label %_ZNK4llvm7DIScope7getFileEv.exit

_ZNK4llvm7DIScope7getFileEv.exit:                 ; preds = %5, %_ZNK4llvm6MDNode10getOperandEj.exit.i.i
  %22 = phi ptr [ %21, %_ZNK4llvm6MDNode10getOperandEj.exit.i.i ], [ %1, %5 ]
  store ptr %22, ptr %0, align 8
  %23 = getelementptr inbounds nuw i8, ptr %1, i64 20
  %24 = load i32, ptr %23, align 4
  store i32 %24, ptr %3, align 8
  store i32 0, ptr %4, align 4
  br label %25

25:                                               ; preds = %2, %_ZNK4llvm7DIScope7getFileEv.exit
  ret void
}